; Function Attrs: mustprogress nofree norecurse nosync nounwind willreturn memory(argmem: readwrite) uwtable
define noundef zeroext i1 @_ZN8facebook5velox9functions17JsonPathTokenizer5resetEN5folly5RangeIPKcEE(ptr nocapture noundef nonnull writeonly align 8 dereferenceable(24) %this, ptr %path.coerce0, ptr %path.coerce1) local_unnamed_addr #0 align 2 {
entry:
  %cmp.i = icmp eq ptr %path.coerce0, %path.coerce1
  br i1 %cmp.i, label %return, label %lor.lhs.false

lor.lhs.false:                                    ; preds = %entry
  %0 = load i8, ptr %path.coerce0, align 1
  %cmp.not = icmp eq i8 %0, 36
  br i1 %cmp.not, label %if.end, label %return

if.end:                                           ; preds = %lor.lhs.false
  store i64 1, ptr %this, align 8
  %path_ = getelementptr inbounds i8, ptr %this, i64 8
  store ptr %path.coerce0, ptr %path_, align 8
  %path.sroa.4.0.path_.sroa_idx = getelementptr inbounds i8, ptr %this, i64 16
  store ptr %path.coerce1, ptr %path.sroa.4.0.path_.sroa_idx, align 8
  br label %return

return:                                           ; preds = %entry, %lor.lhs.false, %if.end
  %retval.0 = phi i1 [ true, %if.end ], [ false, %lor.lhs.false ], [ false, %entry ]
  ret i1 %retval.0
}